target datalayout = "e-m:e-p270:32:32-p271:32:32-p272:64:64-i64:64-i128:128-f80:128-n8:16:32:64-S128"
target triple = "x86_64-pc-linux-gnu"

%struct.ARKodeARKStepMemRec = type { ptr, ptr, i32, i32, i32, i32, i32, i32, ptr, ptr, ptr, ptr, ptr, ptr, i32, i32, i32, i32, ptr, ptr, ptr, ptr, i32, ptr, double, double, double, double, i32, double, double, double, double, double, double, i32, i64, i32, i32, i32, ptr, ptr, ptr, ptr, ptr, ptr, i32, ptr, ptr, ptr, ptr, ptr, ptr, i32, i32, i64, i64, i64, i64, i64, ptr, ptr, i32, i32, i32, double, double, ptr, i32, ptr, ptr }

@.str = private unnamed_addr constant [126 x i8] c"generated/home/dtcxzyw/WorkSpace/Projects/compilers/llvm-opt-benchmark/bench/sundials/sundials/src/arkode/arkode_arkstep_io.c\00", align 1
@.str.79 = private unnamed_addr constant [2 x i8] c"\0A\00", align 1
@__func__.ARKStepWriteButcher = private unnamed_addr constant [20 x i8] c"ARKStepWriteButcher\00", align 1
@.str.99 = private unnamed_addr constant [29 x i8] c"Butcher table memory is NULL\00", align 1
@.str.100 = private unnamed_addr constant [40 x i8] c"\0AARKStep Butcher tables (stages = %i):\0A\00", align 1
@.str.101 = private unnamed_addr constant [27 x i8] c"  Explicit Butcher table:\0A\00", align 1
@.str.102 = private unnamed_addr constant [27 x i8] c"  Implicit Butcher table:\0A\00", align 1

; Function Attrs: nounwind uwtable
define i32 @ARKStepWriteButcher(ptr noundef %0, ptr noundef %1) #0 {
  %3 = alloca i32, align 4
  %4 = alloca ptr, align 8
  %5 = alloca ptr, align 8
  %6 = alloca i32, align 4
  %7 = alloca ptr, align 8
  %8 = alloca ptr, align 8
  %9 = alloca i32, align 4
  store ptr %0, ptr %4, align 8, !tbaa !3
  store ptr %1, ptr %5, align 8, !tbaa !99
  call void @llvm.lifetime.start.p0(i64 4, ptr %6) #4
  call void @llvm.lifetime.start.p0(i64 8, ptr %7) #4
  call void @llvm.lifetime.start.p0(i64 8, ptr %8) #4
  %10 = load ptr, ptr %4, align 8, !tbaa !3
  %11 = call i32 @arkStep_AccessARKODEStepMem(ptr noundef %10, ptr noundef @__func__.ARKStepWriteButcher, ptr noundef %7, ptr noundef %8)
  store i32 %11, ptr %6, align 4, !tbaa !7
  %12 = load i32, ptr %6, align 4, !tbaa !7
  %13 = icmp ne i32 %12, 0
  br i1 %13, label %14, label %16

14:                                               ; preds = %2
  %15 = load i32, ptr %6, align 4, !tbaa !7
  store i32 %15, ptr %3, align 4
  store i32 1, ptr %9, align 4
  br label %72

16:                                               ; preds = %2
  %17 = load ptr, ptr %8, align 8, !tbaa !9
  %18 = getelementptr inbounds nuw %struct.ARKodeARKStepMemRec, ptr %17, i32 0, i32 18
  %19 = load ptr, ptr %18, align 8, !tbaa !43
  %20 = icmp eq ptr %19, null
  br i1 %20, label %21, label %28

21:                                               ; preds = %16
  %22 = load ptr, ptr %8, align 8, !tbaa !9
  %23 = getelementptr inbounds nuw %struct.ARKodeARKStepMemRec, ptr %22, i32 0, i32 19
  %24 = load ptr, ptr %23, align 8, !tbaa !47
  %25 = icmp eq ptr %24, null
  br i1 %25, label %26, label %28

26:                                               ; preds = %21
  %27 = load ptr, ptr %7, align 8, !tbaa !20
  call void (ptr, i32, i32, ptr, ptr, ptr, ...) @arkProcessError(ptr noundef %27, i32 noundef -21, i32 noundef 2305, ptr noundef @__func__.ARKStepWriteButcher, ptr noundef @.str, ptr noundef @.str.99)
  store i32 -21, ptr %3, align 4
  store i32 1, ptr %9, align 4
  br label %72

28:                                               ; preds = %21, %16
  %29 = load ptr, ptr %5, align 8, !tbaa !99
  %30 = load ptr, ptr %8, align 8, !tbaa !9
  %31 = getelementptr inbounds nuw %struct.ARKodeARKStepMemRec, ptr %30, i32 0, i32 17
  %32 = load i32, ptr %31, align 4, !tbaa !40
  %33 = call i32 (ptr, ptr, ...) @fprintf(ptr noundef %29, ptr noundef @.str.100, i32 noundef %32) #4
  %34 = load ptr, ptr %8, align 8, !tbaa !9
  %35 = getelementptr inbounds nuw %struct.ARKodeARKStepMemRec, ptr %34, i32 0, i32 5
  %36 = load i32, ptr %35, align 4, !tbaa !22
  %37 = icmp ne i32 %36, 0
  br i1 %37, label %38, label %50

38:                                               ; preds = %28
  %39 = load ptr, ptr %8, align 8, !tbaa !9
  %40 = getelementptr inbounds nuw %struct.ARKodeARKStepMemRec, ptr %39, i32 0, i32 18
  %41 = load ptr, ptr %40, align 8, !tbaa !43
  %42 = icmp ne ptr %41, null
  br i1 %42, label %43, label %50

43:                                               ; preds = %38
  %44 = load ptr, ptr %5, align 8, !tbaa !99
  %45 = call i32 (ptr, ptr, ...) @fprintf(ptr noundef %44, ptr noundef @.str.101) #4
  %46 = load ptr, ptr %8, align 8, !tbaa !9
  %47 = getelementptr inbounds nuw %struct.ARKodeARKStepMemRec, ptr %46, i32 0, i32 18
  %48 = load ptr, ptr %47, align 8, !tbaa !43
  %49 = load ptr, ptr %5, align 8, !tbaa !99
  call void @ARKodeButcherTable_Write(ptr noundef %48, ptr noundef %49)
  br label %50

50:                                               ; preds = %43, %38, %28
  %51 = load ptr, ptr %5, align 8, !tbaa !99
  %52 = call i32 (ptr, ptr, ...) @fprintf(ptr noundef %51, ptr noundef @.str.79) #4
  %53 = load ptr, ptr %8, align 8, !tbaa !9
  %54 = getelementptr inbounds nuw %struct.ARKodeARKStepMemRec, ptr %53, i32 0, i32 6
  %55 = load i32, ptr %54, align 8, !tbaa !23
  %56 = icmp ne i32 %55, 0
  br i1 %56, label %57, label %69

57:                                               ; preds = %50
  %58 = load ptr, ptr %8, align 8, !tbaa !9
  %59 = getelementptr inbounds nuw %struct.ARKodeARKStepMemRec, ptr %58, i32 0, i32 19
  %60 = load ptr, ptr %59, align 8, !tbaa !47
  %61 = icmp ne ptr %60, null
  br i1 %61, label %62, label %69

62:                                               ; preds = %57
  %63 = load ptr, ptr %5, align 8, !tbaa !99
  %64 = call i32 (ptr, ptr, ...) @fprintf(ptr noundef %63, ptr noundef @.str.102) #4
  %65 = load ptr, ptr %8, align 8, !tbaa !9
  %66 = getelementptr inbounds nuw %struct.ARKodeARKStepMemRec, ptr %65, i32 0, i32 19
  %67 = load ptr, ptr %66, align 8, !tbaa !47
  %68 = load ptr, ptr %5, align 8, !tbaa !99
  call void @ARKodeButcherTable_Write(ptr noundef %67, ptr noundef %68)
  br label %69

69:                                               ; preds = %62, %57, %50
  %70 = load ptr, ptr %5, align 8, !tbaa !99
  %71 = call i32 (ptr, ptr, ...) @fprintf(ptr noundef %70, ptr noundef @.str.79) #4
  store i32 0, ptr %3, align 4
  store i32 1, ptr %9, align 4
  br label %72

72:                                               ; preds = %69, %26, %14
  call void @llvm.lifetime.end.p0(i64 8, ptr %8) #4
  call void @llvm.lifetime.end.p0(i64 8, ptr %7) #4
  call void @llvm.lifetime.end.p0(i64 4, ptr %6) #4
  %73 = load i32, ptr %3, align 4
  ret i32 %73
}