; Function Attrs: nounwind uwtable
define i32 @ARKStepWriteButcher(ptr noundef %0, ptr noundef %1) local_unnamed_addr #0 {
  %3 = alloca ptr, align 8
  %4 = alloca ptr, align 8
  call void @llvm.lifetime.start.p0(i64 8, ptr nonnull %3) #5
  call void @llvm.lifetime.start.p0(i64 8, ptr nonnull %4) #5
  %5 = call i32 @arkStep_AccessARKODEStepMem(ptr noundef %0, ptr noundef nonnull @__func__.ARKStepWriteButcher, ptr noundef nonnull %3, ptr noundef nonnull %4) #5
  %.not = icmp eq i32 %5, 0
  br i1 %.not, label %6, label %45

6:                                                ; preds = %2
  %7 = load ptr, ptr %4, align 8, !tbaa !3
  %8 = getelementptr inbounds nuw i8, ptr %7, i64 104
  %9 = load ptr, ptr %8, align 8, !tbaa !40
  %10 = icmp eq ptr %9, null
  br i1 %10, label %11, label %17

11:                                               ; preds = %6
  %12 = getelementptr inbounds nuw i8, ptr %7, i64 112
  %13 = load ptr, ptr %12, align 8, !tbaa !44
  %14 = icmp eq ptr %13, null
  br i1 %14, label %15, label %17

15:                                               ; preds = %11
  %16 = load ptr, ptr %3, align 8, !tbaa !18
  call void (ptr, i32, i32, ptr, ptr, ptr, ...) @arkProcessError(ptr noundef %16, i32 noundef -21, i32 noundef 2305, ptr noundef nonnull @__func__.ARKStepWriteButcher, ptr noundef nonnull @.str, ptr noundef nonnull @.str.99) #5
  br label %45

17:                                               ; preds = %11, %6
  %18 = getelementptr inbounds nuw i8, ptr %7, i64 100
  %19 = load i32, ptr %18, align 4, !tbaa !37
  %20 = call i32 (ptr, ptr, ...) @fprintf(ptr noundef %1, ptr noundef nonnull @.str.100, i32 noundef %19) #5
  %21 = load ptr, ptr %4, align 8, !tbaa !3
  %22 = getelementptr inbounds nuw i8, ptr %21, i64 28
  %23 = load i32, ptr %22, align 4, !tbaa !20
  %.not11 = icmp eq i32 %23, 0
  br i1 %.not11, label %32, label %24

24:                                               ; preds = %17
  %25 = getelementptr inbounds nuw i8, ptr %21, i64 104
  %26 = load ptr, ptr %25, align 8, !tbaa !40
  %.not12 = icmp eq ptr %26, null
  br i1 %.not12, label %32, label %27

27:                                               ; preds = %24
  %28 = call i64 @fwrite(ptr nonnull @.str.101, i64 26, i64 1, ptr %1)
  %29 = load ptr, ptr %4, align 8, !tbaa !3
  %30 = getelementptr inbounds nuw i8, ptr %29, i64 104
  %31 = load ptr, ptr %30, align 8, !tbaa !40
  call void @ARKodeButcherTable_Write(ptr noundef %31, ptr noundef %1) #5
  br label %32

32:                                               ; preds = %27, %24, %17
  %fputc = call i32 @fputc(i32 10, ptr %1)
  %33 = load ptr, ptr %4, align 8, !tbaa !3
  %34 = getelementptr inbounds nuw i8, ptr %33, i64 32
  %35 = load i32, ptr %34, align 8, !tbaa !21
  %.not13 = icmp eq i32 %35, 0
  br i1 %.not13, label %44, label %36

36:                                               ; preds = %32
  %37 = getelementptr inbounds nuw i8, ptr %33, i64 112
  %38 = load ptr, ptr %37, align 8, !tbaa !44
  %.not14 = icmp eq ptr %38, null
  br i1 %.not14, label %44, label %39

39:                                               ; preds = %36
  %40 = call i64 @fwrite(ptr nonnull @.str.102, i64 26, i64 1, ptr %1)
  %41 = load ptr, ptr %4, align 8, !tbaa !3
  %42 = getelementptr inbounds nuw i8, ptr %41, i64 112
  %43 = load ptr, ptr %42, align 8, !tbaa !44
  call void @ARKodeButcherTable_Write(ptr noundef %43, ptr noundef %1) #5
  br label %44

44:                                               ; preds = %39, %36, %32
  %fputc15 = call i32 @fputc(i32 10, ptr %1)
  br label %45

45:                                               ; preds = %2, %44, %15
  %.0 = phi i32 [ -21, %15 ], [ 0, %44 ], [ %5, %2 ]
  call void @llvm.lifetime.end.p0(i64 8, ptr nonnull %4) #5
  call void @llvm.lifetime.end.p0(i64 8, ptr nonnull %3) #5
  ret i32 %.0
}